target datalayout = "e-m:e-p270:32:32-p271:32:32-p272:64:64-i64:64-i128:128-f80:128-n8:16:32:64-S128"
target triple = "x86_64-pc-linux-gnu"

%struct._cms_io_handler = type { ptr, ptr, i32, i32, [256 x i8], ptr, ptr, ptr, ptr, ptr }

; Function Attrs: nounwind uwtable
define internal i32 @Type_ColorantTable_Write(ptr noundef %0, ptr noundef %1, ptr noundef %2, i32 noundef %3) #0 {
  %5 = alloca i32, align 4
  %6 = alloca ptr, align 8
  %7 = alloca ptr, align 8
  %8 = alloca ptr, align 8
  %9 = alloca i32, align 4
  %10 = alloca ptr, align 8
  %11 = alloca i32, align 4
  %12 = alloca i32, align 4
  %13 = alloca [256 x i8], align 16
  %14 = alloca [3 x i16], align 2
  store ptr %0, ptr %6, align 8
  store ptr %1, ptr %7, align 8
  store ptr %2, ptr %8, align 8
  store i32 %3, ptr %9, align 4
  %15 = load ptr, ptr %8, align 8
  store ptr %15, ptr %10, align 8
  %16 = load ptr, ptr %10, align 8
  %17 = call i32 @cmsNamedColorCount(ptr noundef %16)
  store i32 %17, ptr %12, align 4
  %18 = load ptr, ptr %7, align 8
  %19 = load i32, ptr %12, align 4
  %20 = call i32 @_cmsWriteUInt32Number(ptr noundef %18, i32 noundef %19)
  %21 = icmp ne i32 %20, 0
  br i1 %21, label %23, label %22

22:                                               ; preds = %4
  store i32 0, ptr %5, align 4
  br label %58

23:                                               ; preds = %4
  store i32 0, ptr %11, align 4
  br label %24

24:                                               ; preds = %54, %23
  %25 = load i32, ptr %11, align 4
  %26 = load i32, ptr %12, align 4
  %27 = icmp ult i32 %25, %26
  br i1 %27, label %28, label %57

28:                                               ; preds = %24
  %29 = getelementptr inbounds [256 x i8], ptr %13, i64 0, i64 0
  call void @llvm.memset.p0.i64(ptr align 16 %29, i8 0, i64 256, i1 false)
  %30 = load ptr, ptr %10, align 8
  %31 = load i32, ptr %11, align 4
  %32 = getelementptr inbounds [256 x i8], ptr %13, i64 0, i64 0
  %33 = getelementptr inbounds [3 x i16], ptr %14, i64 0, i64 0
  %34 = call i32 @cmsNamedColorInfo(ptr noundef %30, i32 noundef %31, ptr noundef %32, ptr noundef null, ptr noundef null, ptr noundef %33, ptr noundef null)
  %35 = icmp ne i32 %34, 0
  br i1 %35, label %37, label %36

36:                                               ; preds = %28
  store i32 0, ptr %5, align 4
  br label %58

37:                                               ; preds = %28
  %38 = getelementptr inbounds [256 x i8], ptr %13, i64 0, i64 32
  store i8 0, ptr %38, align 16
  %39 = load ptr, ptr %7, align 8
  %40 = getelementptr inbounds %struct._cms_io_handler, ptr %39, i32 0, i32 9
  %41 = load ptr, ptr %40, align 8
  %42 = load ptr, ptr %7, align 8
  %43 = getelementptr inbounds [256 x i8], ptr %13, i64 0, i64 0
  %44 = call i32 %41(ptr noundef %42, i32 noundef 32, ptr noundef %43)
  %45 = icmp ne i32 %44, 0
  br i1 %45, label %47, label %46

46:                                               ; preds = %37
  store i32 0, ptr %5, align 4
  br label %58

47:                                               ; preds = %37
  %48 = load ptr, ptr %7, align 8
  %49 = getelementptr inbounds [3 x i16], ptr %14, i64 0, i64 0
  %50 = call i32 @_cmsWriteUInt16Array(ptr noundef %48, i32 noundef 3, ptr noundef %49)
  %51 = icmp ne i32 %50, 0
  br i1 %51, label %53, label %52

52:                                               ; preds = %47
  store i32 0, ptr %5, align 4
  br label %58

53:                                               ; preds = %47
  br label %54

54:                                               ; preds = %53
  %55 = load i32, ptr %11, align 4
  %56 = add i32 %55, 1
  store i32 %56, ptr %11, align 4
  br label %24, !llvm.loop !32

57:                                               ; preds = %24
  store i32 1, ptr %5, align 4
  br label %58

58:                                               ; preds = %57, %52, %46, %36, %22
  %59 = load i32, ptr %5, align 4
  ret i32 %59
}