; Function Attrs: nounwind uwtable
define internal range(i32 0, 2) i32 @Type_ColorantTable_Write(ptr nocapture readnone %0, ptr noundef %1, ptr noundef %2, i32 %3) #0 {
  %5 = alloca [256 x i8], align 16
  %6 = alloca [3 x i16], align 2
  %7 = tail call i32 @cmsNamedColorCount(ptr noundef %2) #13
  %8 = tail call i32 @_cmsWriteUInt32Number(ptr noundef %1, i32 noundef %7) #13
  %.not = icmp eq i32 %8, 0
  br i1 %.not, label %.loopexit, label %.preheader

.preheader:                                       ; preds = %4
  %9 = getelementptr inbounds i8, ptr %5, i64 32
  %.not23 = icmp eq i32 %7, 0
  br i1 %.not23, label %.loopexit, label %.lr.ph

.lr.ph:                                           ; preds = %.preheader
  %10 = getelementptr inbounds i8, ptr %1, i64 312
  br label %13

11:                                               ; preds = %18
  %12 = add nuw i32 %.01216, 1
  %exitcond.not = icmp eq i32 %12, %7
  br i1 %exitcond.not, label %.loopexit, label %13, !llvm.loop !34

13:                                               ; preds = %.lr.ph, %11
  %.01216 = phi i32 [ 0, %.lr.ph ], [ %12, %11 ]
  call void @llvm.memset.p0.i64(ptr noundef nonnull align 16 dereferenceable(256) %5, i8 0, i64 256, i1 false)
  %14 = call i32 @cmsNamedColorInfo(ptr noundef %2, i32 noundef %.01216, ptr noundef nonnull %5, ptr noundef null, ptr noundef null, ptr noundef nonnull %6, ptr noundef null) #13
  %.not13 = icmp eq i32 %14, 0
  br i1 %.not13, label %.loopexit, label %15

15:                                               ; preds = %13
  store i8 0, ptr %9, align 16
  %16 = load ptr, ptr %10, align 8
  %17 = call i32 %16(ptr noundef %1, i32 noundef 32, ptr noundef nonnull %5) #13
  %.not14 = icmp eq i32 %17, 0
  br i1 %.not14, label %.loopexit, label %18

18:                                               ; preds = %15
  %19 = call i32 @_cmsWriteUInt16Array(ptr noundef nonnull %1, i32 noundef 3, ptr noundef nonnull %6) #13
  %.not15 = icmp eq i32 %19, 0
  br i1 %.not15, label %.loopexit, label %11

.loopexit:                                        ; preds = %13, %15, %18, %11, %.preheader, %4
  %.0 = phi i32 [ 0, %4 ], [ 1, %.preheader ], [ 0, %13 ], [ 0, %15 ], [ 0, %18 ], [ 1, %11 ]
  ret i32 %.0
}